; Function Attrs: mustprogress nounwind uwtable
define internal fastcc void @_ZN7testing8internal23CartesianProductHolder4INS0_14ParamGeneratorIN11opencv_test12_GLOBAL__N_112_GLOBAL__N_110GuideTypesEEENS2_INS5_8SrcTypesEEENS0_11ValueArray2IN2cv5Size_IiEESD_EENS0_11ValueArray4IddddEEED2Ev(ptr noundef nonnull readonly align 8 dereferenceable(80) %0) unnamed_addr #6 align 2 personality ptr @__gxx_personality_v0 {
  %2 = getelementptr inbounds i8, ptr %0, i64 16
  %3 = getelementptr inbounds i8, ptr %0, i64 24
  invoke void @_ZN7testing8internal9MutexBase4LockEv(ptr noundef nonnull align 8 dereferenceable(56) @_ZN7testing8internal18g_linked_ptr_mutexE)
          to label %.noexc.i.i unwind label %19

.noexc.i.i:                                       ; preds = %1
  %4 = load ptr, ptr %3, align 8
  %5 = icmp eq ptr %4, %3
  br i1 %5, label %8, label %.preheader.i.i.i.i

.preheader.i.i.i.i:                               ; preds = %.noexc.i.i, %.preheader.i.i.i.i
  %.0.i.i.i.i = phi ptr [ %6, %.preheader.i.i.i.i ], [ %4, %.noexc.i.i ]
  %6 = load ptr, ptr %.0.i.i.i.i, align 8
  %.not.i.i.i.i = icmp eq ptr %6, %3
  br i1 %.not.i.i.i.i, label %7, label %.preheader.i.i.i.i, !llvm.loop !56

7:                                                ; preds = %.preheader.i.i.i.i
  store ptr %4, ptr %.0.i.i.i.i, align 8
  br label %8

8:                                                ; preds = %7, %.noexc.i.i
  invoke void @_ZN7testing8internal9MutexBase6UnlockEv(ptr noundef nonnull align 8 dereferenceable(56) @_ZN7testing8internal18g_linked_ptr_mutexE)
          to label %_ZN7testing8internal19linked_ptr_internal6departEv.exit.i.i.i unwind label %9

9:                                                ; preds = %8
  %10 = landingpad { ptr, i32 }
          catch ptr null
  %11 = extractvalue { ptr, i32 } %10, 0
  tail call void @__clang_call_terminate(ptr %11) #27
  unreachable

_ZN7testing8internal19linked_ptr_internal6departEv.exit.i.i.i: ; preds = %8
  br i1 %5, label %12, label %_ZN7testing8internal14ParamGeneratorIN11opencv_test12_GLOBAL__N_112_GLOBAL__N_18SrcTypesEED2Ev.exit

12:                                               ; preds = %_ZN7testing8internal19linked_ptr_internal6departEv.exit.i.i.i
  %13 = load ptr, ptr %2, align 8
  %14 = icmp eq ptr %13, null
  br i1 %14, label %_ZN7testing8internal14ParamGeneratorIN11opencv_test12_GLOBAL__N_112_GLOBAL__N_18SrcTypesEED2Ev.exit, label %15

15:                                               ; preds = %12
  %16 = load ptr, ptr %13, align 8
  %17 = getelementptr inbounds i8, ptr %16, i64 8
  %18 = load ptr, ptr %17, align 8
  tail call void %18(ptr noundef nonnull align 8 dereferenceable(8) %13) #26
  br label %_ZN7testing8internal14ParamGeneratorIN11opencv_test12_GLOBAL__N_112_GLOBAL__N_18SrcTypesEED2Ev.exit

19:                                               ; preds = %1
  %20 = landingpad { ptr, i32 }
          catch ptr null
  %21 = extractvalue { ptr, i32 } %20, 0
  tail call void @__clang_call_terminate(ptr %21) #27
  unreachable

_ZN7testing8internal14ParamGeneratorIN11opencv_test12_GLOBAL__N_112_GLOBAL__N_18SrcTypesEED2Ev.exit: ; preds = %_ZN7testing8internal19linked_ptr_internal6departEv.exit.i.i.i, %12, %15
  %22 = getelementptr inbounds i8, ptr %0, i64 8
  invoke void @_ZN7testing8internal9MutexBase4LockEv(ptr noundef nonnull align 8 dereferenceable(56) @_ZN7testing8internal18g_linked_ptr_mutexE)
          to label %.noexc.i.i1 unwind label %38

.noexc.i.i1:                                      ; preds = %_ZN7testing8internal14ParamGeneratorIN11opencv_test12_GLOBAL__N_112_GLOBAL__N_18SrcTypesEED2Ev.exit
  %23 = load ptr, ptr %22, align 8
  %24 = icmp eq ptr %23, %22
  br i1 %24, label %27, label %.preheader.i.i.i.i2

.preheader.i.i.i.i2:                              ; preds = %.noexc.i.i1, %.preheader.i.i.i.i2
  %.0.i.i.i.i3 = phi ptr [ %25, %.preheader.i.i.i.i2 ], [ %23, %.noexc.i.i1 ]
  %25 = load ptr, ptr %.0.i.i.i.i3, align 8
  %.not.i.i.i.i4 = icmp eq ptr %25, %22
  br i1 %.not.i.i.i.i4, label %26, label %.preheader.i.i.i.i2, !llvm.loop !56

26:                                               ; preds = %.preheader.i.i.i.i2
  store ptr %23, ptr %.0.i.i.i.i3, align 8
  br label %27

27:                                               ; preds = %26, %.noexc.i.i1
  invoke void @_ZN7testing8internal9MutexBase6UnlockEv(ptr noundef nonnull align 8 dereferenceable(56) @_ZN7testing8internal18g_linked_ptr_mutexE)
          to label %_ZN7testing8internal19linked_ptr_internal6departEv.exit.i.i.i5 unwind label %28

28:                                               ; preds = %27
  %29 = landingpad { ptr, i32 }
          catch ptr null
  %30 = extractvalue { ptr, i32 } %29, 0
  tail call void @__clang_call_terminate(ptr %30) #27
  unreachable

_ZN7testing8internal19linked_ptr_internal6departEv.exit.i.i.i5: ; preds = %27
  br i1 %24, label %31, label %_ZN7testing8internal14ParamGeneratorIN11opencv_test12_GLOBAL__N_112_GLOBAL__N_110GuideTypesEED2Ev.exit

31:                                               ; preds = %_ZN7testing8internal19linked_ptr_internal6departEv.exit.i.i.i5
  %32 = load ptr, ptr %0, align 8
  %33 = icmp eq ptr %32, null
  br i1 %33, label %_ZN7testing8internal14ParamGeneratorIN11opencv_test12_GLOBAL__N_112_GLOBAL__N_110GuideTypesEED2Ev.exit, label %34

34:                                               ; preds = %31
  %35 = load ptr, ptr %32, align 8
  %36 = getelementptr inbounds i8, ptr %35, i64 8
  %37 = load ptr, ptr %36, align 8
  tail call void %37(ptr noundef nonnull align 8 dereferenceable(8) %32) #26
  br label %_ZN7testing8internal14ParamGeneratorIN11opencv_test12_GLOBAL__N_112_GLOBAL__N_110GuideTypesEED2Ev.exit

38:                                               ; preds = %_ZN7testing8internal14ParamGeneratorIN11opencv_test12_GLOBAL__N_112_GLOBAL__N_18SrcTypesEED2Ev.exit
  %39 = landingpad { ptr, i32 }
          catch ptr null
  %40 = extractvalue { ptr, i32 } %39, 0
  tail call void @__clang_call_terminate(ptr %40) #27
  unreachable

_ZN7testing8internal14ParamGeneratorIN11opencv_test12_GLOBAL__N_112_GLOBAL__N_110GuideTypesEED2Ev.exit: ; preds = %_ZN7testing8internal19linked_ptr_internal6departEv.exit.i.i.i5, %31, %34
  ret void
}